; Function Attrs: cold mustprogress nofree norecurse nosync nounwind optsize willreturn memory(readwrite, inaccessiblemem: none) uwtable
define internal void @vorbis_decode_flush(ptr noundef readonly captures(none) %0) #2 {
  %2 = getelementptr inbounds nuw i8, ptr %0, i64 32
  %3 = load ptr, ptr %2, align 8, !tbaa !4
  %4 = getelementptr inbounds nuw i8, ptr %3, i64 240
  %5 = load ptr, ptr %4, align 8, !tbaa !142
  %.not = icmp eq ptr %5, null
  br i1 %.not, label %16, label %6

6:                                                ; preds = %1
  %7 = getelementptr inbounds nuw i8, ptr %3, i64 120
  %8 = load i32, ptr %7, align 4, !tbaa !44
  %9 = lshr i32 %8, 2
  %10 = getelementptr inbounds nuw i8, ptr %3, i64 96
  %11 = load i8, ptr %10, align 8, !tbaa !51
  %12 = zext i8 %11 to i32
  %13 = mul i32 %9, %12
  %14 = zext i32 %13 to i64
  %15 = shl nuw nsw i64 %14, 2
  tail call void @llvm.memset.p0.i64(ptr nonnull align 4 %5, i8 0, i64 %15, i1 false)
  br label %16

16:                                               ; preds = %6, %1
  %17 = getelementptr inbounds nuw i8, ptr %3, i64 225
  store i8 -1, ptr %17, align 1, !tbaa !71
  %18 = getelementptr inbounds nuw i8, ptr %3, i64 88
  store i8 0, ptr %18, align 8, !tbaa !145
  ret void
}